; Function Attrs: nounwind uwtable
define noundef i32 @cli_json_parse_error(ptr noundef %0, ptr noundef %1) local_unnamed_addr #0 {
  %.not = icmp eq ptr %0, null
  br i1 %.not, label %8, label %3

3:                                                ; preds = %2
  %4 = tail call ptr @cli_jsonarray(ptr noundef nonnull %0, ptr noundef nonnull @.str.1)
  %5 = icmp eq ptr %4, null
  br i1 %5, label %8, label %6

6:                                                ; preds = %3
  %7 = tail call i32 @cli_jsonstr(ptr noundef nonnull %4, ptr noundef null, ptr noundef %1), !range !4
  br label %8

8:                                                ; preds = %3, %2, %6
  %.0 = phi i32 [ %7, %6 ], [ 0, %2 ], [ 20, %3 ]
  ret i32 %.0
}